; Function Attrs: nounwind uwtable
define i32 @lv_animimg_get_repeat_count(ptr noundef %0) local_unnamed_addr #0 {
  %.not = icmp eq ptr %0, null
  br i1 %.not, label %.preheader, label %2

.preheader:                                       ; preds = %1, %.preheader
  br label %.preheader

2:                                                ; preds = %1
  %3 = getelementptr inbounds nuw i8, ptr %0, i64 120
  %4 = tail call i32 @lv_anim_get_repeat_count(ptr noundef nonnull %3) #4
  ret i32 %4
}